target datalayout = "e-m:e-p270:32:32-p271:32:32-p272:64:64-i64:64-i128:128-f80:128-n8:16:32:64-S128"
target triple = "x86_64-pc-linux-gnu"

%struct.fdt_header = type { i32, i32, i32, i32, i32, i32, i32, i32, i32, i32 }

; Function Attrs: inlinehint nounwind uwtable
define internal i32 @fdt32_ld(ptr noundef %0) #2 {
  %2 = alloca ptr, align 8
  %3 = alloca ptr, align 8
  store ptr %0, ptr %2, align 8, !tbaa !27
  call void @llvm.lifetime.start.p0(i64 8, ptr %3) #7
  %4 = load ptr, ptr %2, align 8, !tbaa !27
  store ptr %4, ptr %3, align 8, !tbaa !17
  %5 = load ptr, ptr %3, align 8, !tbaa !17
  %6 = getelementptr inbounds i8, ptr %5, i64 0
  %7 = load i8, ptr %6, align 1, !tbaa !16
  %8 = zext i8 %7 to i32
  %9 = shl i32 %8, 24
  %10 = load ptr, ptr %3, align 8, !tbaa !17
  %11 = getelementptr inbounds i8, ptr %10, i64 1
  %12 = load i8, ptr %11, align 1, !tbaa !16
  %13 = zext i8 %12 to i32
  %14 = shl i32 %13, 16
  %15 = or i32 %9, %14
  %16 = load ptr, ptr %3, align 8, !tbaa !17
  %17 = getelementptr inbounds i8, ptr %16, i64 2
  %18 = load i8, ptr %17, align 1, !tbaa !16
  %19 = zext i8 %18 to i32
  %20 = shl i32 %19, 8
  %21 = or i32 %15, %20
  %22 = load ptr, ptr %3, align 8, !tbaa !17
  %23 = getelementptr inbounds i8, ptr %22, i64 3
  %24 = load i8, ptr %23, align 1, !tbaa !16
  %25 = zext i8 %24 to i32
  %26 = or i32 %21, %25
  call void @llvm.lifetime.end.p0(i64 8, ptr %3) #7
  ret i32 %26
}

; Function Attrs: nounwind uwtable
define internal i32 @fdt_blocks_misordered_(ptr noundef %0, i32 noundef %1, i32 noundef %2) #0 {
  %4 = alloca ptr, align 8
  %5 = alloca i32, align 4
  %6 = alloca i32, align 4
  store ptr %0, ptr %4, align 8, !tbaa !3
  store i32 %1, ptr %5, align 4, !tbaa !9
  store i32 %2, ptr %6, align 4, !tbaa !9
  %7 = load ptr, ptr %4, align 8, !tbaa !3
  %8 = getelementptr inbounds nuw %struct.fdt_header, ptr %7, i32 0, i32 4
  %9 = call i32 @fdt32_ld(ptr noundef %8)
  %10 = zext i32 %9 to i64
  %11 = icmp ult i64 %10, 40
  br i1 %11, label %44, label %12

12:                                               ; preds = %3
  %13 = load ptr, ptr %4, align 8, !tbaa !3
  %14 = getelementptr inbounds nuw %struct.fdt_header, ptr %13, i32 0, i32 2
  %15 = call i32 @fdt32_ld(ptr noundef %14)
  %16 = load ptr, ptr %4, align 8, !tbaa !3
  %17 = getelementptr inbounds nuw %struct.fdt_header, ptr %16, i32 0, i32 4
  %18 = call i32 @fdt32_ld(ptr noundef %17)
  %19 = load i32, ptr %5, align 4, !tbaa !9
  %20 = add i32 %18, %19
  %21 = icmp ult i32 %15, %20
  br i1 %21, label %44, label %22

22:                                               ; preds = %12
  %23 = load ptr, ptr %4, align 8, !tbaa !3
  %24 = getelementptr inbounds nuw %struct.fdt_header, ptr %23, i32 0, i32 3
  %25 = call i32 @fdt32_ld(ptr noundef %24)
  %26 = load ptr, ptr %4, align 8, !tbaa !3
  %27 = getelementptr inbounds nuw %struct.fdt_header, ptr %26, i32 0, i32 2
  %28 = call i32 @fdt32_ld(ptr noundef %27)
  %29 = load i32, ptr %6, align 4, !tbaa !9
  %30 = add i32 %28, %29
  %31 = icmp ult i32 %25, %30
  br i1 %31, label %44, label %32

32:                                               ; preds = %22
  %33 = load ptr, ptr %4, align 8, !tbaa !3
  %34 = getelementptr inbounds nuw %struct.fdt_header, ptr %33, i32 0, i32 1
  %35 = call i32 @fdt32_ld(ptr noundef %34)
  %36 = load ptr, ptr %4, align 8, !tbaa !3
  %37 = getelementptr inbounds nuw %struct.fdt_header, ptr %36, i32 0, i32 3
  %38 = call i32 @fdt32_ld(ptr noundef %37)
  %39 = load ptr, ptr %4, align 8, !tbaa !3
  %40 = getelementptr inbounds nuw %struct.fdt_header, ptr %39, i32 0, i32 8
  %41 = call i32 @fdt32_ld(ptr noundef %40)
  %42 = add i32 %38, %41
  %43 = icmp ult i32 %35, %42
  br label %44

44:                                               ; preds = %32, %22, %12, %3
  %45 = phi i1 [ true, %22 ], [ true, %12 ], [ true, %3 ], [ %43, %32 ]
  %46 = zext i1 %45 to i32
  ret i32 %46
}